Certificate:
    Data:
        Version: 3 (0x2)
        Serial Number: 1 (0x1)
    Signature Algorithm: sha256WithRSAEncryption
        Issuer: C=US, ST=NY, L=New York, O=Home, OU=Certifier, CN=Home CA/name=HOME/emailAddress=me@example.com
        Validity
            Not Before: Aug  2 22:45:27 2016 GMT
            Not After : Jul 31 22:45:27 2026 GMT
        Subject: C=US, ST=NY, L=New York, O=Home, OU=Certifier, CN=hello-server/name=HOME/emailAddress=me@example.com
        Subject Public Key Info:
            Public Key Algorithm: rsaEncryption
                Public-Key: (2048 bit)
                Modulus:
                    00:ce:f5:e9:ce:4a:80:7d:4e:3e:e4:a2:3c:e4:ee:
                    e7:2e:23:20:9a:8e:f0:91:da:ab:03:80:61:6d:b5:
                    0c:eb:de:a3:f9:25:c6:27:bc:00:2a:80:62:95:45:
                    13:82:f9:ef:75:cb:21:71:74:0f:a5:dd:66:77:30:
                    02:e6:4b:0c:68:86:99:de:62:41:68:4a:7e:67:60:
                    09:76:8c:7c:27:b1:e2:ae:fd:1f:74:05:1a:95:76:
                    a2:c6:86:81:c4:bc:c9:eb:34:9c:ef:0c:53:86:ce:
                    f3:a9:cf:b5:18:50:7a:02:36:07:da:93:9b:a0:a8:
                    a0:41:46:05:91:f0:06:e2:c0:e8:7f:f2:40:d8:56:
                    d0:85:9b:8f:db:1f:05:8b:21:e5:57:15:bc:10:e0:
                    f5:3f:8f:f0:e1:3e:12:13:71:67:76:36:a8:73:f7:
                    33:0e:99:bd:60:92:85:ae:43:8f:91:cc:a8:f2:8a:
                    8a:b8:eb:5c:c5:21:b3:19:4d:e6:25:06:81:e9:67:
                    9d:07:83:82:c5:b6:5b:76:91:1d:2d:6a:b7:6b:a3:
                    68:12:d2:fa:21:64:83:8c:c1:b6:07:f5:df:32:50:
                    b1:c9:1b:28:77:91:ba:91:33:b8:cc:77:85:bb:5e:
                    f7:33:8e:7c:04:65:59:01:24:54:56:ed:1b:13:90:
                    e9:a5
                Exponent: 65537 (0x10001)
        X509v3 extensions:
            X509v3 Basic Constraints: 
                CA:FALSE
            Netscape Cert Type: 
                SSL Server
            Netscape Comment: 
                Easy-RSA Generated Server Certificate
            X509v3 Subject Key Identifier: 
                E7:E3:A5:93:9B:E1:F1:4B:77:B8:A1:D3:18:28:CE:61:84:6A:AF:88
            X509v3 Authority Key Identifier: 
                keyid:6F:0D:38:32:A2:DE:53:4E:56:3B:ED:1E:D3:5D:9F:6B:1D:CA:DD:CF
                DirName:/C=US/ST=NY/L=New York/O=Home/OU=Certifier/CN=Home CA/name=HOME/emailAddress=me@example.com
                serial:E4:C6:57:ED:84:25:11:BC

            X509v3 Extended Key Usage: 
                TLS Web Server Authentication
            X509v3 Key Usage: 
                Digital Signature, Key Encipherment
            X509v3 Subject Alternative Name: 
                DNS:hello-server
    Signature Algorithm: sha256WithRSAEncryption
         89:36:38:94:f3:b6:d0:80:88:b7:b1:a3:32:64:47:f6:fa:5f:
         4d:55:4f:e8:8d:c0:c8:fb:c1:da:2e:18:b0:00:eb:81:f9:0d:
         92:0d:77:f6:1a:a7:7c:1e:9d:83:8f:ec:ea:04:be:ba:a6:ce:
         9a:8f:7d:0f:c8:dd:6a:08:7e:00:24:4f:e8:09:a4:93:d1:d4:
         d8:be:6c:26:d7:e3:ed:bb:84:92:0b:25:4a:43:e2:98:40:28:
         d9:41:7f:43:e8:d7:fe:bf:11:3d:12:9a:8c:e3:97:e6:1b:7b:
         3e:ba:bd:b2:91:6d:1c:f9:bf:8e:58:3b:09:b1:d7:b6:9b:b9:
         d6:50:40:08:e3:01:3b:5d:17:10:13:da:7a:35:1d:80:8a:45:
         4e:db:f2:07:a8:35:7d:ae:7b:9a:f6:7a:66:77:28:7a:4f:b2:
         a3:66:1d:15:c0:e9:85:1f:1c:69:80:8f:24:89:30:bc:dc:ec:
         14:45:8f:b9:a9:ac:cf:ef:bb:00:8a:71:b3:56:c5:1f:95:fd:
         56:f4:ab:4e:84:d6:cb:37:3f:8c:e6:a7:51:7c:55:6f:b9:f6:
         a7:bd:d7:e7:c2:00:44:a6:1f:5c:ed:07:ca:82:95:1c:4e:88:
         3e:7d:f9:1d:d8:df:cd:d9:0c:44:61:35:83:75:6c:9f:66:59:
         17:5a:ea:79
-----BEGIN CERTIFICATE-----
MIIFHjCCBAagAwIBAgIBATANBgkqhkiG9w0BAQsFADCBkDELMAkGA1UEBhMCVVMx
CzAJBgNVBAgTAk5ZMREwDwYDVQQHEwhOZXcgWW9yazENMAsGA1UEChMESG9tZTES
MBAGA1UECxMJQ2VydGlmaWVyMRAwDgYDVQQDEwdIb21lIENBMQ0wCwYDVQQpEwRI
T01FMR0wGwYJKoZIhvcNAQkBFg5tZUBleGFtcGxlLmNvbTAeFw0xNjA4MDIyMjQ1
MjdaFw0yNjA3MzEyMjQ1MjdaMIGVMQswCQYDVQQGEwJVUzELMAkGA1UECBMCTlkx
ETAPBgNVBAcTCE5ldyBZb3JrMQ0wCwYDVQQKEwRIb21lMRIwEAYDVQQLEwlDZXJ0
aWZpZXIxFTATBgNVBAMTDGhlbGxvLXNlcnZlcjENMAsGA1UEKRMESE9NRTEdMBsG
CSqGSIb3DQEJARYObWVAZXhhbXBsZS5jb20wggEiMA0GCSqGSIb3DQEBAQUAA4IB
DwAwggEKAoIBAQDO9enOSoB9Tj7kojzk7ucuIyCajvCR2qsDgGFttQzr3qP5JcYn
vAAqgGKVRROC+e91yyFxdA+l3WZ3MALmSwxohpneYkFoSn5nYAl2jHwnseKu/R90
BRqVdqLGhoHEvMnrNJzvDFOGzvOpz7UYUHoCNgfak5ugqKBBRgWR8AbiwOh/8kDY
VtCFm4/bHwWLIeVXFbwQ4PU/j/DhPhITcWd2Nqhz9zMOmb1gkoWuQ4+RzKjyioq4
61zFIbMZTeYlBoHpZ50Hg4LFtlt2kR0tardro2gS0vohZIOMwbYH9d8yULHJGyh3
kbqRM7jMd4W7XvczjnwEZVkBJFRW7RsTkOmlAgMBAAGjggF6MIIBdjAJBgNVHRME
AjAAMBEGCWCGSAGG+EIBAQQEAwIGQDA0BglghkgBhvhCAQ0EJxYlRWFzeS1SU0Eg
R2VuZXJhdGVkIFNlcnZlciBDZXJ0aWZpY2F0ZTAdBgNVHQ4EFgQU5+Olk5vh8Ut3
uKHTGCjOYYRqr4gwgcUGA1UdIwSBvTCBuoAUbw04MqLeU05WO+0e012fax3K3c+h
gZakgZMwgZAxCzAJBgNVBAYTAlVTMQswCQYDVQQIEwJOWTERMA8GA1UEBxMITmV3
IFlvcmsxDTALBgNVBAoTBEhvbWUxEjAQBgNVBAsTCUNlcnRpZmllcjEQMA4GA1UE
AxMHSG9tZSBDQTENMAsGA1UEKRMESE9NRTEdMBsGCSqGSIb3DQEJARYObWVAZXhh
bXBsZS5jb22CCQDkxlfthCURvDATBgNVHSUEDDAKBggrBgEFBQcDATALBgNVHQ8E
BAMCBaAwFwYDVR0RBBAwDoIMaGVsbG8tc2VydmVyMA0GCSqGSIb3DQEBCwUAA4IB
AQCJNjiU87bQgIi3saMyZEf2+l9NVU/ojcDI+8HaLhiwAOuB+Q2SDXf2Gqd8Hp2D
j+zqBL66ps6aj30PyN1qCH4AJE/oCaST0dTYvmwm1+Ptu4SSCyVKQ+KYQCjZQX9D
6Nf+vxE9EpqM45fmG3s+ur2ykW0c+b+OWDsJsde2m7nWUEAI4wE7XRcQE9p6NR2A
ikVO2/IHqDV9rnua9npmdyh6T7KjZh0VwOmFHxxpgI8kiTC83OwURY+5qazP77sA
inGzVsUflf1W9KtOhNbLNz+M5qdRfFVvufanvdfnwgBEph9c7QfKgpUcTog+ffkd
2N/N2QxEYTWDdWyfZlkXWup5
-----END CERTIFICATE-----
